; Function Attrs: mustprogress nounwind willreturn uwtable
define void @Cec2_ManSimAlloc(ptr noundef captures(none) initializes((816, 820)) %0, i32 noundef %1) local_unnamed_addr #7 {
  %3 = getelementptr inbounds nuw i8, ptr %0, i64 832
  %4 = load ptr, ptr %3, align 8
  %5 = icmp eq ptr %4, null
  br i1 %5, label %Vec_WrdFreeP.exit, label %6

6:                                                ; preds = %2
  %7 = getelementptr inbounds nuw i8, ptr %4, i64 8
  %8 = load ptr, ptr %7, align 8
  %.not.i = icmp eq ptr %8, null
  br i1 %.not.i, label %.thread.i, label %9

9:                                                ; preds = %6
  tail call void @free(ptr noundef nonnull %8) #21
  %10 = load ptr, ptr %3, align 8
  %11 = getelementptr inbounds nuw i8, ptr %10, i64 8
  store ptr null, ptr %11, align 8
  %.pre.i = load ptr, ptr %3, align 8
  %.not9.i = icmp eq ptr %.pre.i, null
  br i1 %.not9.i, label %Vec_WrdFreeP.exit, label %.thread.i

.thread.i:                                        ; preds = %9, %6
  %12 = phi ptr [ %.pre.i, %9 ], [ %4, %6 ]
  tail call void @free(ptr noundef nonnull %12) #21
  store ptr null, ptr %3, align 8
  br label %Vec_WrdFreeP.exit

Vec_WrdFreeP.exit:                                ; preds = %2, %9, %.thread.i
  %13 = getelementptr inbounds nuw i8, ptr %0, i64 848
  %14 = load ptr, ptr %13, align 8
  %15 = icmp eq ptr %14, null
  br i1 %15, label %Vec_WrdFreeP.exit14, label %16

16:                                               ; preds = %Vec_WrdFreeP.exit
  %17 = getelementptr inbounds nuw i8, ptr %14, i64 8
  %18 = load ptr, ptr %17, align 8
  %.not.i10 = icmp eq ptr %18, null
  br i1 %.not.i10, label %.thread.i13, label %19

19:                                               ; preds = %16
  tail call void @free(ptr noundef nonnull %18) #21
  %20 = load ptr, ptr %13, align 8
  %21 = getelementptr inbounds nuw i8, ptr %20, i64 8
  store ptr null, ptr %21, align 8
  %.pre.i11 = load ptr, ptr %13, align 8
  %.not9.i12 = icmp eq ptr %.pre.i11, null
  br i1 %.not9.i12, label %Vec_WrdFreeP.exit14, label %.thread.i13

.thread.i13:                                      ; preds = %19, %16
  %22 = phi ptr [ %.pre.i11, %19 ], [ %14, %16 ]
  tail call void @free(ptr noundef nonnull %22) #21
  store ptr null, ptr %13, align 8
  br label %Vec_WrdFreeP.exit14

Vec_WrdFreeP.exit14:                              ; preds = %Vec_WrdFreeP.exit, %19, %.thread.i13
  %23 = getelementptr i8, ptr %0, i64 24
  %.val = load i32, ptr %23, align 8
  %24 = mul nsw i32 %.val, %1
  %25 = tail call noalias dereferenceable_or_null(16) ptr @malloc(i64 noundef 16) #22
  %26 = add i32 %24, -1
  %or.cond.i.i = icmp ult i32 %26, 15
  %spec.store.select.i.i = select i1 %or.cond.i.i, i32 16, i32 %24
  store i32 %spec.store.select.i.i, ptr %25, align 8
  %.not.i.i = icmp eq i32 %spec.store.select.i.i, 0
  br i1 %.not.i.i, label %Vec_WrdStart.exit, label %27

27:                                               ; preds = %Vec_WrdFreeP.exit14
  %28 = sext i32 %spec.store.select.i.i to i64
  %29 = shl nsw i64 %28, 3
  %30 = tail call noalias ptr @malloc(i64 noundef %29) #22
  br label %Vec_WrdStart.exit

Vec_WrdStart.exit:                                ; preds = %Vec_WrdFreeP.exit14, %27
  %31 = phi ptr [ %30, %27 ], [ null, %Vec_WrdFreeP.exit14 ]
  %32 = getelementptr inbounds nuw i8, ptr %25, i64 4
  %33 = getelementptr inbounds nuw i8, ptr %25, i64 8
  store ptr %31, ptr %33, align 8
  store i32 %24, ptr %32, align 4
  %34 = sext i32 %24 to i64
  %35 = shl nsw i64 %34, 3
  tail call void @llvm.memset.p0.i64(ptr align 8 %31, i8 0, i64 %35, i1 false)
  store ptr %25, ptr %3, align 8
  %36 = getelementptr i8, ptr %0, i64 64
  %.val9 = load ptr, ptr %36, align 8
  %37 = getelementptr i8, ptr %.val9, i64 4
  %.val9.val = load i32, ptr %37, align 4
  %38 = shl i32 %1, 2
  %39 = mul i32 %38, %.val9.val
  %40 = tail call noalias dereferenceable_or_null(16) ptr @malloc(i64 noundef 16) #22
  %41 = add i32 %39, -1
  %or.cond.i = icmp ult i32 %41, 15
  %spec.store.select.i = select i1 %or.cond.i, i32 16, i32 %39
  %42 = getelementptr inbounds nuw i8, ptr %40, i64 4
  store i32 0, ptr %42, align 4
  store i32 %spec.store.select.i, ptr %40, align 8
  %.not.i15 = icmp eq i32 %spec.store.select.i, 0
  br i1 %.not.i15, label %Vec_WrdAlloc.exit, label %43

43:                                               ; preds = %Vec_WrdStart.exit
  %44 = sext i32 %spec.store.select.i to i64
  %45 = shl nsw i64 %44, 3
  %46 = tail call noalias ptr @malloc(i64 noundef %45) #22
  br label %Vec_WrdAlloc.exit

Vec_WrdAlloc.exit:                                ; preds = %Vec_WrdStart.exit, %43
  %47 = phi ptr [ %46, %43 ], [ null, %Vec_WrdStart.exit ]
  %48 = getelementptr inbounds nuw i8, ptr %40, i64 8
  store ptr %47, ptr %48, align 8
  store ptr %40, ptr %13, align 8
  %49 = getelementptr inbounds nuw i8, ptr %0, i64 816
  store i32 %1, ptr %49, align 8
  ret void
}